Certificate:
    Data:
        Version: 3 (0x2)
        Serial Number: 1 (0x1)
    Signature Algorithm: sha256WithRSAEncryption
        Issuer: C=FR, ST=Radius, L=Somewhere, O=Example Inc./emailAddress=admin@example.org, CN=Example Certificate Authority
        Validity
            Not Before: Mar 16 16:51:40 2018 GMT
            Not After : May 15 16:51:40 2018 GMT
        Subject: C=FR, ST=Radius, O=Example Inc., CN=Example Server Certificate/emailAddress=admin@example.org
        Subject Public Key Info:
            Public Key Algorithm: rsaEncryption
                Public-Key: (2048 bit)
                Modulus:
                    00:c3:7f:18:61:3c:e3:d0:8a:fc:a9:b2:c7:62:be:
                    45:0c:18:a8:04:eb:87:13:59:09:9b:ea:d1:74:2f:
                    ca:e5:5d:22:96:17:b2:a4:80:14:1a:bc:6a:c6:bf:
                    34:8b:b1:c8:a6:e7:9d:3a:77:16:ea:0c:6e:45:5a:
                    dc:75:b5:46:ea:ef:7e:a4:9e:a6:e4:e0:2a:31:93:
                    9c:9d:57:3a:89:06:9e:9e:5d:05:e5:a6:63:29:67:
                    78:13:e9:f2:37:c2:57:8a:3e:dd:4b:38:1c:f8:17:
                    fb:23:cc:08:7a:cb:fb:e7:e7:53:31:79:af:9a:48:
                    f2:59:15:19:91:4f:55:b1:1e:6c:7a:55:aa:8a:dc:
                    d9:57:6a:db:c3:15:da:d0:9b:72:c4:cd:06:14:85:
                    3e:12:a0:f5:a9:d8:a9:70:96:15:23:96:13:1f:7e:
                    ff:96:cd:2b:20:b2:1e:9a:e8:bb:69:af:5c:eb:6c:
                    92:64:bd:af:e2:7f:0c:bf:12:d7:1a:5f:95:a0:d9:
                    3d:96:58:fb:5f:af:c4:90:e9:0b:dd:6c:cf:dd:cd:
                    8a:b6:9e:a3:3d:b6:bf:a1:a2:6e:d7:b1:99:12:ac:
                    1b:d4:fc:f2:22:8f:f0:73:3e:f6:06:9d:96:a9:46:
                    1d:6c:80:de:82:9f:e6:cf:3a:d3:a9:a4:e3:77:62:
                    82:a1
                Exponent: 65537 (0x10001)
        X509v3 extensions:
            X509v3 Extended Key Usage: 
                TLS Web Server Authentication
            X509v3 CRL Distribution Points: 

                Full Name:
                  URI:http://www.example.com/example_ca.crl

    Signature Algorithm: sha256WithRSAEncryption
         65:d4:83:84:22:71:ea:b4:2f:e5:6d:a2:ac:18:90:b3:0b:6f:
         6e:d0:75:56:7c:2d:8c:ac:30:7a:66:dd:83:bb:f7:b7:4c:05:
         e1:4a:f2:d9:63:2f:46:f0:8b:db:98:38:65:a5:b5:18:d3:96:
         4d:ae:83:7a:57:43:11:f6:23:82:8a:06:55:2f:1c:5b:38:96:
         fa:c1:ee:4d:32:52:9a:a5:d5:b6:80:14:a1:88:f3:9d:d2:37:
         18:6a:cc:c0:60:94:90:18:44:1a:6e:3c:cc:ac:2a:11:22:c4:
         26:d1:a8:51:55:85:f2:35:86:80:25:77:5b:f5:b8:f4:6d:51:
         ad:50:67:f1:0f:c8:43:29:64:63:63:e4:64:01:12:6d:40:98:
         83:ed:f0:15:0f:53:06:b4:74:51:87:1f:6e:04:7c:fb:7d:c2:
         7a:a1:35:a7:3e:a6:2a:bb:63:b3:d4:50:71:ed:77:0a:81:f4:
         e9:17:fe:5f:64:60:32:83:9e:a1:50:72:a3:db:f5:66:31:da:
         37:fd:35:2b:65:47:e7:9e:a7:d8:54:f2:b6:51:c2:0c:33:72:
         06:53:25:16:b3:e6:73:e6:66:2f:4d:57:21:a4:de:9d:bf:91:
         b9:2c:c3:1b:f3:4b:ef:11:f9:0a:81:c4:64:eb:07:e0:4d:36:
         c3:a9:8f:44
-----BEGIN CERTIFICATE-----
MIID2jCCAsKgAwIBAgIBATANBgkqhkiG9w0BAQsFADCBkzELMAkGA1UEBhMCRlIx
DzANBgNVBAgMBlJhZGl1czESMBAGA1UEBwwJU29tZXdoZXJlMRUwEwYDVQQKDAxF
eGFtcGxlIEluYy4xIDAeBgkqhkiG9w0BCQEWEWFkbWluQGV4YW1wbGUub3JnMSYw
JAYDVQQDDB1FeGFtcGxlIENlcnRpZmljYXRlIEF1dGhvcml0eTAeFw0xODAzMTYx
NjUxNDBaFw0xODA1MTUxNjUxNDBaMHwxCzAJBgNVBAYTAkZSMQ8wDQYDVQQIDAZS
YWRpdXMxFTATBgNVBAoMDEV4YW1wbGUgSW5jLjEjMCEGA1UEAwwaRXhhbXBsZSBT
ZXJ2ZXIgQ2VydGlmaWNhdGUxIDAeBgkqhkiG9w0BCQEWEWFkbWluQGV4YW1wbGUu
b3JnMIIBIjANBgkqhkiG9w0BAQEFAAOCAQ8AMIIBCgKCAQEAw38YYTzj0Ir8qbLH
Yr5FDBioBOuHE1kJm+rRdC/K5V0ilheypIAUGrxqxr80i7HIpuedOncW6gxuRVrc
dbVG6u9+pJ6m5OAqMZOcnVc6iQaenl0F5aZjKWd4E+nyN8JXij7dSzgc+Bf7I8wI
esv75+dTMXmvmkjyWRUZkU9VsR5selWqitzZV2rbwxXa0JtyxM0GFIU+EqD1qdip
cJYVI5YTH37/ls0rILIemui7aa9c62ySZL2v4n8MvxLXGl+VoNk9llj7X6/EkOkL
3WzP3c2Ktp6jPba/oaJu17GZEqwb1PzyIo/wcz72Bp2WqUYdbIDegp/mzzrTqaTj
d2KCoQIDAQABo08wTTATBgNVHSUEDDAKBggrBgEFBQcDATA2BgNVHR8ELzAtMCug
KaAnhiVodHRwOi8vd3d3LmV4YW1wbGUuY29tL2V4YW1wbGVfY2EuY3JsMA0GCSqG
SIb3DQEBCwUAA4IBAQBl1IOEInHqtC/lbaKsGJCzC29u0HVWfC2MrDB6Zt2Du/e3
TAXhSvLZYy9G8IvbmDhlpbUY05ZNroN6V0MR9iOCigZVLxxbOJb6we5NMlKapdW2
gBShiPOd0jcYaszAYJSQGEQabjzMrCoRIsQm0ahRVYXyNYaAJXdb9bj0bVGtUGfx
D8hDKWRjY+RkARJtQJiD7fAVD1MGtHRRhx9uBHz7fcJ6oTWnPqYqu2Oz1FBx7XcK
gfTpF/5fZGAyg56hUHKj2/VmMdo3/TUrZUfnnqfYVPK2UcIMM3IGUyUWs+Zz5mYv
TVchpN6dv5G5LMMb80vvEfkKgcRk6wfgTTbDqY9E
-----END CERTIFICATE-----
