Certificate:
    Data:
        Version: 3 (0x2)
        Serial Number: 2 (0x2)
    Signature Algorithm: sha256WithRSAEncryption
        Issuer: C=FR, ST=Radius, L=Somewhere, O=Example Inc./emailAddress=admin@example.org, CN=Example Certificate Authority
        Validity
            Not Before: Mar 16 16:51:41 2018 GMT
            Not After : May 15 16:51:41 2018 GMT
        Subject: C=FR, ST=Radius, O=Example Inc., CN=user@example.org/emailAddress=user@example.org
        Subject Public Key Info:
            Public Key Algorithm: rsaEncryption
                Public-Key: (2048 bit)
                Modulus:
                    00:ac:66:3b:d1:fb:9f:e2:d4:67:7e:01:51:af:10:
                    32:7e:7c:e6:1b:98:7a:1f:66:04:a9:72:8d:0e:c5:
                    9b:aa:38:57:5d:0b:44:75:84:80:6a:57:8c:68:79:
                    59:46:07:f2:e0:96:e0:f6:c6:8d:7e:19:9d:b9:1f:
                    77:7e:74:13:6a:7a:2e:10:78:f0:da:71:dd:16:f7:
                    03:3d:7b:1d:fe:75:a8:8c:29:32:af:d7:86:6c:ce:
                    7a:de:5b:2c:d0:9f:c9:1f:1a:06:2d:af:b8:bc:34:
                    36:87:bc:0c:c6:fb:15:dc:ce:1c:95:46:88:a9:57:
                    5e:5c:3f:7d:f8:cc:05:94:86:e1:5e:26:94:fd:a3:
                    4c:1e:b7:2e:c2:78:b7:6c:ba:55:b8:6d:53:b5:53:
                    d1:9a:f1:ec:81:47:09:74:b0:f0:bc:14:54:86:80:
                    d8:b2:7d:87:4c:62:eb:5d:50:e2:a6:f0:1d:f9:48:
                    e7:94:b2:ee:6e:27:a8:c4:62:00:59:f8:83:d2:97:
                    68:82:be:dc:10:b7:29:03:ea:d3:0a:3a:c6:bc:b9:
                    30:16:e8:54:f5:78:9c:21:c2:e8:f8:fc:1c:9c:c2:
                    39:a1:4d:b2:ea:b2:5f:5b:09:ca:a1:e2:50:1d:e6:
                    f1:6d:5b:08:2a:0d:50:c4:32:b3:c3:28:6f:6b:9d:
                    65:77
                Exponent: 65537 (0x10001)
        X509v3 extensions:
            X509v3 Extended Key Usage: 
                TLS Web Client Authentication
            X509v3 CRL Distribution Points: 

                Full Name:
                  URI:http://www.example.com/example_ca.crl

    Signature Algorithm: sha256WithRSAEncryption
         09:e8:5b:b9:99:fd:9e:c7:46:87:ce:03:00:e4:75:f2:13:c4:
         f6:5c:ce:ea:21:c2:ac:0c:6d:a6:c4:c1:7f:e6:68:fa:68:5b:
         0e:b0:3b:26:2f:08:9d:f4:31:f8:30:9a:a2:f0:4f:e4:c2:b3:
         5d:4c:40:e7:4b:a9:9e:40:3c:5e:1f:28:65:f2:10:39:a5:a0:
         4d:f7:c7:03:c0:ea:34:41:0a:29:1f:79:7f:74:41:6a:f9:05:
         7a:8a:32:0e:84:43:f9:96:9d:8c:43:9e:13:56:23:6a:e9:e4:
         32:f9:ad:72:d3:02:3b:86:0c:ad:5c:e5:b7:5e:e5:d3:56:95:
         e8:79:0c:d9:99:82:3b:61:2c:7e:b7:d2:f2:b9:b9:a6:2e:32:
         06:b0:39:a9:0a:6e:80:3d:67:79:d6:9b:96:68:e8:67:8a:57:
         dc:57:35:2a:dc:a0:d6:13:e3:71:8e:0e:02:b0:92:bb:45:f0:
         32:85:c0:96:60:80:80:e0:80:80:4f:d4:b7:c7:be:f0:e0:34:
         ad:84:79:96:4a:11:3e:99:61:22:01:4e:f5:f5:84:fc:59:34:
         aa:7d:75:cc:bb:7a:0f:50:20:4f:fb:43:98:15:7e:d8:56:f8:
         d1:f8:20:d4:5c:ff:40:81:3c:f5:32:e8:7e:7a:b8:a1:13:34:
         7d:c5:ed:eb
-----BEGIN CERTIFICATE-----
MIIDzzCCAregAwIBAgIBAjANBgkqhkiG9w0BAQsFADCBkzELMAkGA1UEBhMCRlIx
DzANBgNVBAgMBlJhZGl1czESMBAGA1UEBwwJU29tZXdoZXJlMRUwEwYDVQQKDAxF
eGFtcGxlIEluYy4xIDAeBgkqhkiG9w0BCQEWEWFkbWluQGV4YW1wbGUub3JnMSYw
JAYDVQQDDB1FeGFtcGxlIENlcnRpZmljYXRlIEF1dGhvcml0eTAeFw0xODAzMTYx
NjUxNDFaFw0xODA1MTUxNjUxNDFaMHExCzAJBgNVBAYTAkZSMQ8wDQYDVQQIDAZS
YWRpdXMxFTATBgNVBAoMDEV4YW1wbGUgSW5jLjEZMBcGA1UEAwwQdXNlckBleGFt
cGxlLm9yZzEfMB0GCSqGSIb3DQEJARYQdXNlckBleGFtcGxlLm9yZzCCASIwDQYJ
KoZIhvcNAQEBBQADggEPADCCAQoCggEBAKxmO9H7n+LUZ34BUa8QMn585huYeh9m
BKlyjQ7Fm6o4V10LRHWEgGpXjGh5WUYH8uCW4PbGjX4Znbkfd350E2p6LhB48Npx
3Rb3Az17Hf51qIwpMq/XhmzOet5bLNCfyR8aBi2vuLw0Noe8DMb7FdzOHJVGiKlX
Xlw/ffjMBZSG4V4mlP2jTB63LsJ4t2y6VbhtU7VT0Zrx7IFHCXSw8LwUVIaA2LJ9
h0xi611Q4qbwHflI55Sy7m4nqMRiAFn4g9KXaIK+3BC3KQPq0wo6xry5MBboVPV4
nCHC6Pj8HJzCOaFNsuqyX1sJyqHiUB3m8W1bCCoNUMQys8Mob2udZXcCAwEAAaNP
ME0wEwYDVR0lBAwwCgYIKwYBBQUHAwIwNgYDVR0fBC8wLTAroCmgJ4YlaHR0cDov
L3d3dy5leGFtcGxlLmNvbS9leGFtcGxlX2NhLmNybDANBgkqhkiG9w0BAQsFAAOC
AQEACehbuZn9nsdGh84DAOR18hPE9lzO6iHCrAxtpsTBf+Zo+mhbDrA7Ji8InfQx
+DCaovBP5MKzXUxA50upnkA8Xh8oZfIQOaWgTffHA8DqNEEKKR95f3RBavkFeooy
DoRD+ZadjEOeE1YjaunkMvmtctMCO4YMrVzlt17l01aV6HkM2ZmCO2EsfrfS8rm5
pi4yBrA5qQpugD1nedablmjoZ4pX3Fc1Ktyg1hPjcY4OArCSu0XwMoXAlmCAgOCA
gE/Ut8e+8OA0rYR5lkoRPplhIgFO9fWE/Fk0qn11zLt6D1AgT/tDmBV+2Fb40fgg
1Fz/QIE89TLofnq4oRM0fcXt6w==
-----END CERTIFICATE-----
